target datalayout = "e-m:e-p270:32:32-p271:32:32-p272:64:64-i64:64-i128:128-f80:128-n8:16:32:64-S128"
target triple = "x86_64-pc-linux-gnu"

; Function Attrs: inlinehint nounwind willreturn memory(read) uwtable
define available_externally i32 @atoi(ptr noundef nonnull %0) #7 {
  %2 = alloca ptr, align 8
  store ptr %0, ptr %2, align 8, !tbaa !4
  %3 = load ptr, ptr %2, align 8, !tbaa !4
  %4 = call i64 @strtol(ptr noundef %3, ptr noundef null, i32 noundef 10) #11
  %5 = trunc i64 %4 to i32
  ret i32 %5
}

; Function Attrs: inlinehint nounwind uwtable
define internal i32 @hwloc_utils_parse_memattr_name(ptr noundef %0, ptr noundef %1) #4 {
  %3 = alloca i32, align 4
  %4 = alloca ptr, align 8
  %5 = alloca ptr, align 8
  %6 = alloca ptr, align 8
  %7 = alloca i32, align 4
  %8 = alloca i32, align 4
  %9 = alloca i32, align 4
  store ptr %0, ptr %4, align 8, !tbaa !25
  store ptr %1, ptr %5, align 8, !tbaa !4
  call void @llvm.lifetime.start.p0(i64 8, ptr %6) #11
  call void @llvm.lifetime.start.p0(i64 4, ptr %7) #11
  call void @llvm.lifetime.start.p0(i64 4, ptr %8) #11
  store i32 0, ptr %7, align 4, !tbaa !11
  br label %10

10:                                               ; preds = %25, %2
  %11 = load ptr, ptr %4, align 8, !tbaa !25
  %12 = load i32, ptr %7, align 4, !tbaa !11
  %13 = call i32 @hwloc_memattr_get_name(ptr noundef %11, i32 noundef %12, ptr noundef %6)
  store i32 %13, ptr %8, align 4, !tbaa !11
  %14 = load i32, ptr %8, align 4, !tbaa !11
  %15 = icmp slt i32 %14, 0
  br i1 %15, label %16, label %17

16:                                               ; preds = %10
  br label %28

17:                                               ; preds = %10
  %18 = load ptr, ptr %6, align 8, !tbaa !4
  %19 = load ptr, ptr %5, align 8, !tbaa !4
  %20 = call i32 @strcasecmp(ptr noundef %18, ptr noundef %19) #12
  %21 = icmp ne i32 %20, 0
  br i1 %21, label %24, label %22

22:                                               ; preds = %17
  %23 = load i32, ptr %7, align 4, !tbaa !11
  store i32 %23, ptr %3, align 4
  store i32 1, ptr %9, align 4
  br label %50

24:                                               ; preds = %17
  br label %25

25:                                               ; preds = %24
  %26 = load i32, ptr %7, align 4, !tbaa !11
  %27 = add i32 %26, 1
  store i32 %27, ptr %7, align 4, !tbaa !11
  br label %10

28:                                               ; preds = %16
  %29 = load ptr, ptr %5, align 8, !tbaa !4
  %30 = load i8, ptr %29, align 1, !tbaa !15
  %31 = sext i8 %30 to i32
  %32 = icmp slt i32 %31, 48
  br i1 %32, label %38, label %33

33:                                               ; preds = %28
  %34 = load ptr, ptr %5, align 8, !tbaa !4
  %35 = load i8, ptr %34, align 1, !tbaa !15
  %36 = sext i8 %35 to i32
  %37 = icmp sgt i32 %36, 57
  br i1 %37, label %38, label %39

38:                                               ; preds = %33, %28
  store i32 -1, ptr %3, align 4
  store i32 1, ptr %9, align 4
  br label %50

39:                                               ; preds = %33
  %40 = load ptr, ptr %5, align 8, !tbaa !4
  %41 = call i32 @atoi(ptr noundef %40) #12
  store i32 %41, ptr %7, align 4, !tbaa !11
  %42 = load ptr, ptr %4, align 8, !tbaa !25
  %43 = load i32, ptr %7, align 4, !tbaa !11
  %44 = call i32 @hwloc_memattr_get_name(ptr noundef %42, i32 noundef %43, ptr noundef %6)
  store i32 %44, ptr %8, align 4, !tbaa !11
  %45 = load i32, ptr %8, align 4, !tbaa !11
  %46 = icmp slt i32 %45, 0
  br i1 %46, label %47, label %48

47:                                               ; preds = %39
  store i32 -1, ptr %3, align 4
  store i32 1, ptr %9, align 4
  br label %50

48:                                               ; preds = %39
  %49 = load i32, ptr %7, align 4, !tbaa !11
  store i32 %49, ptr %3, align 4
  store i32 1, ptr %9, align 4
  br label %50

50:                                               ; preds = %48, %47, %38, %22
  call void @llvm.lifetime.end.p0(i64 4, ptr %8) #11
  call void @llvm.lifetime.end.p0(i64 4, ptr %7) #11
  call void @llvm.lifetime.end.p0(i64 8, ptr %6) #11
  %51 = load i32, ptr %3, align 4
  ret i32 %51
}