; Function Attrs: inlinehint nounwind uwtable
define internal fastcc i32 @hwloc_utils_parse_memattr_name(ptr noundef %0, ptr noundef nonnull readonly captures(none) %1) unnamed_addr #12 {
  %3 = alloca ptr, align 8
  call void @llvm.lifetime.start.p0(i64 8, ptr nonnull %3) #27
  %4 = call i32 @hwloc_memattr_get_name(ptr noundef %0, i32 noundef 0, ptr noundef nonnull %3) #27
  %5 = icmp slt i32 %4, 0
  br i1 %5, label %._crit_edge, label %.lr.ph

.lr.ph:                                           ; preds = %2, %8
  %.016 = phi i32 [ %9, %8 ], [ 0, %2 ]
  %6 = load ptr, ptr %3, align 8, !tbaa !4
  %7 = call i32 @strcasecmp(ptr noundef %6, ptr noundef nonnull %1) #28
  %.not = icmp eq i32 %7, 0
  br i1 %.not, label %.loopexit, label %8

8:                                                ; preds = %.lr.ph
  %9 = add i32 %.016, 1
  %10 = call i32 @hwloc_memattr_get_name(ptr noundef %0, i32 noundef %9, ptr noundef nonnull %3) #27
  %11 = icmp slt i32 %10, 0
  br i1 %11, label %._crit_edge, label %.lr.ph

._crit_edge:                                      ; preds = %8, %2
  %12 = load i8, ptr %1, align 1, !tbaa !11
  %13 = add i8 %12, -58
  %or.cond = icmp ult i8 %13, -10
  br i1 %or.cond, label %.loopexit, label %14

14:                                               ; preds = %._crit_edge
  %15 = call i64 @strtol(ptr noundef nonnull captures(none) %1, ptr noundef null, i32 noundef 10) #27
  %16 = trunc i64 %15 to i32
  %17 = call i32 @hwloc_memattr_get_name(ptr noundef %0, i32 noundef %16, ptr noundef nonnull %3) #27
  %.inv = icmp sgt i32 %17, -1
  %. = select i1 %.inv, i32 %16, i32 -1
  br label %.loopexit

.loopexit:                                        ; preds = %.lr.ph, %14, %._crit_edge
  %.013 = phi i32 [ -1, %._crit_edge ], [ %., %14 ], [ %.016, %.lr.ph ]
  call void @llvm.lifetime.end.p0(i64 8, ptr nonnull %3) #27
  ret i32 %.013
}